target datalayout = "e-m:e-p270:32:32-p271:32:32-p272:64:64-i64:64-i128:128-f80:128-n8:16:32:64-S128"
target triple = "x86_64-pc-linux-gnu"

%struct._packet_info = type { ptr, ptr, i32, i32, %struct.nstime_t, %struct.nstime_t, %struct.nstime_t, i8, ptr, ptr, ptr, ptr, %struct._address, %struct._address, %struct._address, %struct._address, %struct._address, %struct._address, i32, ptr, i8, [3 x i8], %struct.anon, i32, i32, i32, i32, ptr, i8, ptr, ptr, i16, i16, i32, i32, i16, i32, i32, ptr, ptr, ptr, i8, i8, i16, i16, i16, i32, i16, i16, ptr, ptr, ptr, ptr, ptr, i32, i32 }
%struct.nstime_t = type { i64, i32 }
%struct._address = type { i32, i32, ptr, ptr }
%struct.anon = type { i8, [3 x i8] }

@hf_nfs3_createmode = internal global i32 0, align 4
@hf_nfs3_verifier = internal global i32 0, align 4
@.str.2246 = private unnamed_addr constant [6 x i8] c"where\00", align 1
@.str.2294 = private unnamed_addr constant [15 x i8] c"obj_attributes\00", align 1
@.str.2325 = private unnamed_addr constant [12 x i8] c"Opaque Data\00", align 1
@.str.2326 = private unnamed_addr constant [25 x i8] c", DH: 0x%08x/%s Mode: %s\00", align 1
@.str.2327 = private unnamed_addr constant [17 x i8] c"Unknown Mode: %u\00", align 1
@.str.2328 = private unnamed_addr constant [37 x i8] c", CREATE Call DH: 0x%08x/%s Mode: %s\00", align 1

; Function Attrs: null_pointer_is_valid sspstrong uwtable
define internal i32 @dissect_nfs3_create_verf(ptr noundef %0, i32 noundef %1, ptr noundef %2) #0 {
  %4 = alloca ptr, align 8
  %5 = alloca i32, align 4
  %6 = alloca ptr, align 8
  store ptr %0, ptr %4, align 8
  store i32 %1, ptr %5, align 4
  store ptr %2, ptr %6, align 8
  %7 = load ptr, ptr %6, align 8
  %8 = load i32, ptr @hf_nfs3_verifier, align 4
  %9 = load ptr, ptr %4, align 8
  %10 = load i32, ptr %5, align 4
  %11 = call ptr (ptr, i32, ptr, i32, i32, ptr, ptr, ...) @proto_tree_add_bytes_format_value(ptr noundef %7, i32 noundef %8, ptr noundef %9, i32 noundef %10, i32 noundef 8, ptr noundef null, ptr noundef @.str.2325)
  %12 = load i32, ptr %5, align 4
  %13 = add i32 %12, 8
  store i32 %13, ptr %5, align 4
  %14 = load i32, ptr %5, align 4
  ret i32 %14
}

; Function Attrs: null_pointer_is_valid sspstrong uwtable
define internal i32 @dissect_createmode3(ptr noundef %0, i32 noundef %1, ptr noundef %2, ptr noundef %3) #0 {
  %5 = alloca ptr, align 8
  %6 = alloca i32, align 4
  %7 = alloca ptr, align 8
  %8 = alloca ptr, align 8
  %9 = alloca i32, align 4
  store ptr %0, ptr %5, align 8
  store i32 %1, ptr %6, align 4
  store ptr %2, ptr %7, align 8
  store ptr %3, ptr %8, align 8
  call void @llvm.lifetime.start.p0(i64 4, ptr %9) #16
  %10 = load ptr, ptr %5, align 8
  %11 = load i32, ptr %6, align 4
  %12 = add i32 %11, 0
  %13 = call i32 @tvb_get_ntohl(ptr noundef %10, i32 noundef %12)
  store i32 %13, ptr %9, align 4
  %14 = load ptr, ptr %7, align 8
  %15 = icmp ne ptr %14, null
  br i1 %15, label %16, label %24

16:                                               ; preds = %4
  %17 = load ptr, ptr %7, align 8
  %18 = load i32, ptr @hf_nfs3_createmode, align 4
  %19 = load ptr, ptr %5, align 8
  %20 = load i32, ptr %6, align 4
  %21 = add i32 %20, 0
  %22 = load i32, ptr %9, align 4
  %23 = call ptr @proto_tree_add_uint(ptr noundef %17, i32 noundef %18, ptr noundef %19, i32 noundef %21, i32 noundef 4, i32 noundef %22)
  br label %24

24:                                               ; preds = %16, %4
  %25 = load i32, ptr %6, align 4
  %26 = add i32 %25, 4
  store i32 %26, ptr %6, align 4
  %27 = load i32, ptr %9, align 4
  %28 = load ptr, ptr %8, align 8
  store i32 %27, ptr %28, align 4
  %29 = load i32, ptr %6, align 4
  call void @llvm.lifetime.end.p0(i64 4, ptr %9) #16
  ret i32 %29
}

; Function Attrs: null_pointer_is_valid sspstrong uwtable
define internal i32 @dissect_nfs3_create_call(ptr noundef %0, ptr noundef %1, ptr noundef %2, ptr noundef %3) #0 {
  %5 = alloca ptr, align 8
  %6 = alloca ptr, align 8
  %7 = alloca ptr, align 8
  %8 = alloca ptr, align 8
  %9 = alloca i32, align 4
  %10 = alloca i32, align 4
  %11 = alloca ptr, align 8
  %12 = alloca i32, align 4
  store ptr %0, ptr %5, align 8
  store ptr %1, ptr %6, align 8
  store ptr %2, ptr %7, align 8
  store ptr %3, ptr %8, align 8
  call void @llvm.lifetime.start.p0(i64 4, ptr %9) #16
  call void @llvm.lifetime.start.p0(i64 4, ptr %10) #16
  store i32 0, ptr %10, align 4
  call void @llvm.lifetime.start.p0(i64 8, ptr %11) #16
  store ptr null, ptr %11, align 8
  call void @llvm.lifetime.start.p0(i64 4, ptr %12) #16
  store i32 0, ptr %12, align 4
  %13 = load ptr, ptr %5, align 8
  %14 = load i32, ptr %12, align 4
  %15 = load ptr, ptr %6, align 8
  %16 = load ptr, ptr %7, align 8
  %17 = load ptr, ptr %8, align 8
  %18 = call i32 @dissect_diropargs3(ptr noundef %13, i32 noundef %14, ptr noundef %15, ptr noundef %16, ptr noundef @.str.2246, ptr noundef %10, ptr noundef %11, ptr noundef %17)
  store i32 %18, ptr %12, align 4
  %19 = load ptr, ptr %5, align 8
  %20 = load i32, ptr %12, align 4
  %21 = load ptr, ptr %7, align 8
  %22 = call i32 @dissect_createmode3(ptr noundef %19, i32 noundef %20, ptr noundef %21, ptr noundef %9)
  store i32 %22, ptr %12, align 4
  %23 = load i32, ptr %9, align 4
  switch i32 %23, label %34 [
    i32 0, label %24
    i32 1, label %24
    i32 2, label %29
  ]

24:                                               ; preds = %4, %4
  %25 = load ptr, ptr %5, align 8
  %26 = load i32, ptr %12, align 4
  %27 = load ptr, ptr %7, align 8
  %28 = call i32 @dissect_nfs3_sattr(ptr noundef %25, i32 noundef %26, ptr noundef %27, ptr noundef @.str.2294)
  store i32 %28, ptr %12, align 4
  br label %34

29:                                               ; preds = %4
  %30 = load ptr, ptr %5, align 8
  %31 = load i32, ptr %12, align 4
  %32 = load ptr, ptr %7, align 8
  %33 = call i32 @dissect_nfs3_create_verf(ptr noundef %30, i32 noundef %31, ptr noundef %32)
  store i32 %33, ptr %12, align 4
  br label %34

34:                                               ; preds = %4, %29, %24
  %35 = load ptr, ptr %6, align 8
  %36 = getelementptr inbounds nuw %struct._packet_info, ptr %35, i32 0, i32 1
  %37 = load ptr, ptr %36, align 8
  %38 = load i32, ptr %10, align 4
  %39 = load ptr, ptr %11, align 8
  %40 = load i32, ptr %9, align 4
  %41 = call ptr @val_to_str(i32 noundef %40, ptr noundef @names_createmode3, ptr noundef @.str.2327)
  call void (ptr, i32, ptr, ...) @col_append_fstr(ptr noundef %37, i32 noundef 25, ptr noundef @.str.2326, i32 noundef %38, ptr noundef %39, ptr noundef %41)
  %42 = load ptr, ptr %7, align 8
  %43 = load i32, ptr %10, align 4
  %44 = load ptr, ptr %11, align 8
  %45 = load i32, ptr %9, align 4
  %46 = call ptr @val_to_str(i32 noundef %45, ptr noundef @names_createmode3, ptr noundef @.str.2327)
  call void (ptr, ptr, ...) @proto_item_append_text(ptr noundef %42, ptr noundef @.str.2328, i32 noundef %43, ptr noundef %44, ptr noundef %46)
  %47 = load i32, ptr %12, align 4
  call void @llvm.lifetime.end.p0(i64 4, ptr %12) #16
  call void @llvm.lifetime.end.p0(i64 8, ptr %11) #16
  call void @llvm.lifetime.end.p0(i64 4, ptr %10) #16
  call void @llvm.lifetime.end.p0(i64 4, ptr %9) #16
  ret i32 %47
}