; Function Attrs: null_pointer_is_valid sspstrong uwtable
define internal i32 @dissect_nfs3_create_call(ptr noundef %0, ptr noundef %1, ptr noundef %2, ptr noundef readonly captures(none) %3) #0 {
  %5 = alloca i32, align 4
  %6 = alloca ptr, align 8
  call void @llvm.lifetime.start.p0(i64 4, ptr nonnull %5) #22
  store i32 0, ptr %5, align 4
  call void @llvm.lifetime.start.p0(i64 8, ptr nonnull %6) #22
  store ptr null, ptr %6, align 8
  %7 = call fastcc i32 @dissect_diropargs3(ptr noundef %0, i32 noundef 0, ptr noundef %1, ptr noundef %2, ptr noundef nonnull @.str.2246, ptr noundef nonnull %5, ptr noundef nonnull %6, ptr noundef %3)
  %8 = call i32 @tvb_get_ntohl(ptr noundef %0, i32 noundef %7)
  %.not.i = icmp eq ptr %2, null
  br i1 %.not.i, label %dissect_createmode3.exit, label %9

9:                                                ; preds = %4
  %10 = load i32, ptr @hf_nfs3_createmode, align 4
  %11 = call ptr @proto_tree_add_uint(ptr noundef nonnull %2, i32 noundef %10, ptr noundef %0, i32 noundef %7, i32 noundef 4, i32 noundef %8)
  br label %dissect_createmode3.exit

dissect_createmode3.exit:                         ; preds = %4, %9
  %12 = add i32 %7, 4
  switch i32 %8, label %19 [
    i32 0, label %13
    i32 1, label %13
    i32 2, label %15
  ]

13:                                               ; preds = %dissect_createmode3.exit, %dissect_createmode3.exit
  %14 = call fastcc i32 @dissect_nfs3_sattr(ptr noundef %0, i32 noundef %12, ptr noundef %2, ptr noundef nonnull @.str.2294)
  br label %19

15:                                               ; preds = %dissect_createmode3.exit
  %16 = load i32, ptr @hf_nfs3_verifier, align 4
  %17 = call ptr (ptr, i32, ptr, i32, i32, ptr, ptr, ...) @proto_tree_add_bytes_format_value(ptr noundef %2, i32 noundef %16, ptr noundef %0, i32 noundef %12, i32 noundef 8, ptr noundef null, ptr noundef nonnull @.str.2325)
  %18 = add i32 %7, 12
  br label %19

19:                                               ; preds = %15, %13, %dissect_createmode3.exit
  %.0 = phi i32 [ %12, %dissect_createmode3.exit ], [ %18, %15 ], [ %14, %13 ]
  %20 = getelementptr inbounds nuw i8, ptr %1, i64 8
  %21 = load ptr, ptr %20, align 8
  %22 = load i32, ptr %5, align 4
  %23 = load ptr, ptr %6, align 8
  %24 = call ptr @val_to_str(i32 noundef %8, ptr noundef nonnull @names_createmode3, ptr noundef nonnull @.str.2327)
  call void (ptr, i32, ptr, ...) @col_append_fstr(ptr noundef %21, i32 noundef 25, ptr noundef nonnull @.str.2326, i32 noundef %22, ptr noundef %23, ptr noundef %24)
  %25 = load i32, ptr %5, align 4
  %26 = load ptr, ptr %6, align 8
  %27 = call ptr @val_to_str(i32 noundef %8, ptr noundef nonnull @names_createmode3, ptr noundef nonnull @.str.2327)
  call void (ptr, ptr, ...) @proto_item_append_text(ptr noundef %2, ptr noundef nonnull @.str.2328, i32 noundef %25, ptr noundef %26, ptr noundef %27)
  call void @llvm.lifetime.end.p0(i64 8, ptr nonnull %6) #22
  call void @llvm.lifetime.end.p0(i64 4, ptr nonnull %5) #22
  ret i32 %.0
}